target datalayout = "e-m:e-p270:32:32-p271:32:32-p272:64:64-i64:64-i128:128-f80:128-n8:16:32:64-S128"
target triple = "x86_64-pc-linux-gnu"

%struct.WebPPicture = type { i32, i32, i32, i32, ptr, ptr, ptr, i32, i32, ptr, i32, [2 x i32], ptr, i32, [3 x i32], ptr, ptr, i32, ptr, ptr, i32, ptr, ptr, [3 x i32], ptr, ptr, [8 x i32], ptr, ptr, [2 x ptr] }

; Function Attrs: inlinehint nounwind uwtable
define internal i32 @VP8LNearLosslessBits(i32 noundef %0) #3 {
  %2 = alloca i32, align 4
  store i32 %0, ptr %2, align 4, !tbaa !8
  %3 = load i32, ptr %2, align 4, !tbaa !8
  %4 = sdiv i32 %3, 20
  %5 = sub nsw i32 5, %4
  ret i32 %5
}

; Function Attrs: nounwind uwtable
define hidden i32 @VP8ApplyNearLossless(ptr noundef %0, i32 noundef %1, ptr noundef %2) #0 {
  %4 = alloca i32, align 4
  %5 = alloca ptr, align 8
  %6 = alloca i32, align 4
  %7 = alloca ptr, align 8
  %8 = alloca i32, align 4
  %9 = alloca i32, align 4
  %10 = alloca i32, align 4
  %11 = alloca i32, align 4
  %12 = alloca ptr, align 8
  %13 = alloca i32, align 4
  %14 = alloca i32, align 4
  store ptr %0, ptr %5, align 8, !tbaa !3
  store i32 %1, ptr %6, align 4, !tbaa !8
  store ptr %2, ptr %7, align 8, !tbaa !10
  call void @llvm.lifetime.start.p0(i64 4, ptr %8) #5
  call void @llvm.lifetime.start.p0(i64 4, ptr %9) #5
  %15 = load ptr, ptr %5, align 8, !tbaa !3
  %16 = getelementptr inbounds nuw %struct.WebPPicture, ptr %15, i32 0, i32 2
  %17 = load i32, ptr %16, align 8, !tbaa !12
  store i32 %17, ptr %9, align 4, !tbaa !8
  call void @llvm.lifetime.start.p0(i64 4, ptr %10) #5
  %18 = load ptr, ptr %5, align 8, !tbaa !3
  %19 = getelementptr inbounds nuw %struct.WebPPicture, ptr %18, i32 0, i32 3
  %20 = load i32, ptr %19, align 4, !tbaa !16
  store i32 %20, ptr %10, align 4, !tbaa !8
  call void @llvm.lifetime.start.p0(i64 4, ptr %11) #5
  %21 = load ptr, ptr %5, align 8, !tbaa !3
  %22 = getelementptr inbounds nuw %struct.WebPPicture, ptr %21, i32 0, i32 13
  %23 = load i32, ptr %22, align 8, !tbaa !17
  store i32 %23, ptr %11, align 4, !tbaa !8
  call void @llvm.lifetime.start.p0(i64 8, ptr %12) #5
  %24 = load i32, ptr %9, align 4, !tbaa !8
  %25 = mul nsw i32 %24, 3
  %26 = sext i32 %25 to i64
  %27 = call ptr @WebPSafeMalloc(i64 noundef %26, i64 noundef 4)
  store ptr %27, ptr %12, align 8, !tbaa !10
  call void @llvm.lifetime.start.p0(i64 4, ptr %13) #5
  %28 = load i32, ptr %6, align 4, !tbaa !8
  %29 = call i32 @VP8LNearLosslessBits(i32 noundef %28)
  store i32 %29, ptr %13, align 4, !tbaa !8
  %30 = load ptr, ptr %12, align 8, !tbaa !10
  %31 = icmp eq ptr %30, null
  br i1 %31, label %32, label %33

32:                                               ; preds = %3
  store i32 0, ptr %4, align 4
  store i32 1, ptr %14, align 4
  br label %100

33:                                               ; preds = %3
  %34 = load i32, ptr %9, align 4, !tbaa !8
  %35 = icmp slt i32 %34, 64
  br i1 %35, label %36, label %39

36:                                               ; preds = %33
  %37 = load i32, ptr %10, align 4, !tbaa !8
  %38 = icmp slt i32 %37, 64
  br i1 %38, label %42, label %39

39:                                               ; preds = %36, %33
  %40 = load i32, ptr %10, align 4, !tbaa !8
  %41 = icmp slt i32 %40, 3
  br i1 %41, label %42, label %72

42:                                               ; preds = %39, %36
  store i32 0, ptr %8, align 4, !tbaa !8
  br label %43

43:                                               ; preds = %67, %42
  %44 = load i32, ptr %8, align 4, !tbaa !8
  %45 = load i32, ptr %10, align 4, !tbaa !8
  %46 = icmp slt i32 %44, %45
  br i1 %46, label %47, label %70

47:                                               ; preds = %43
  %48 = load ptr, ptr %7, align 8, !tbaa !10
  %49 = load i32, ptr %8, align 4, !tbaa !8
  %50 = load i32, ptr %9, align 4, !tbaa !8
  %51 = mul nsw i32 %49, %50
  %52 = sext i32 %51 to i64
  %53 = getelementptr inbounds i32, ptr %48, i64 %52
  %54 = load ptr, ptr %5, align 8, !tbaa !3
  %55 = getelementptr inbounds nuw %struct.WebPPicture, ptr %54, i32 0, i32 12
  %56 = load ptr, ptr %55, align 8, !tbaa !18
  %57 = load i32, ptr %8, align 4, !tbaa !8
  %58 = load ptr, ptr %5, align 8, !tbaa !3
  %59 = getelementptr inbounds nuw %struct.WebPPicture, ptr %58, i32 0, i32 13
  %60 = load i32, ptr %59, align 8, !tbaa !17
  %61 = mul nsw i32 %57, %60
  %62 = sext i32 %61 to i64
  %63 = getelementptr inbounds i32, ptr %56, i64 %62
  %64 = load i32, ptr %9, align 4, !tbaa !8
  %65 = sext i32 %64 to i64
  %66 = mul i64 %65, 4
  call void @llvm.memcpy.p0.p0.i64(ptr align 4 %53, ptr align 4 %63, i64 %66, i1 false)
  br label %67

67:                                               ; preds = %47
  %68 = load i32, ptr %8, align 4, !tbaa !8
  %69 = add nsw i32 %68, 1
  store i32 %69, ptr %8, align 4, !tbaa !8
  br label %43, !llvm.loop !19

70:                                               ; preds = %43
  %71 = load ptr, ptr %12, align 8, !tbaa !10
  call void @WebPSafeFree(ptr noundef %71)
  store i32 1, ptr %4, align 4
  store i32 1, ptr %14, align 4
  br label %100

72:                                               ; preds = %39
  %73 = load i32, ptr %9, align 4, !tbaa !8
  %74 = load i32, ptr %10, align 4, !tbaa !8
  %75 = load ptr, ptr %5, align 8, !tbaa !3
  %76 = getelementptr inbounds nuw %struct.WebPPicture, ptr %75, i32 0, i32 12
  %77 = load ptr, ptr %76, align 8, !tbaa !18
  %78 = load i32, ptr %11, align 4, !tbaa !8
  %79 = load i32, ptr %13, align 4, !tbaa !8
  %80 = load ptr, ptr %12, align 8, !tbaa !10
  %81 = load ptr, ptr %7, align 8, !tbaa !10
  call void @NearLossless(i32 noundef %73, i32 noundef %74, ptr noundef %77, i32 noundef %78, i32 noundef %79, ptr noundef %80, ptr noundef %81)
  %82 = load i32, ptr %13, align 4, !tbaa !8
  %83 = sub nsw i32 %82, 1
  store i32 %83, ptr %8, align 4, !tbaa !8
  br label %84

84:                                               ; preds = %95, %72
  %85 = load i32, ptr %8, align 4, !tbaa !8
  %86 = icmp ne i32 %85, 0
  br i1 %86, label %87, label %98

87:                                               ; preds = %84
  %88 = load i32, ptr %9, align 4, !tbaa !8
  %89 = load i32, ptr %10, align 4, !tbaa !8
  %90 = load ptr, ptr %7, align 8, !tbaa !10
  %91 = load i32, ptr %9, align 4, !tbaa !8
  %92 = load i32, ptr %8, align 4, !tbaa !8
  %93 = load ptr, ptr %12, align 8, !tbaa !10
  %94 = load ptr, ptr %7, align 8, !tbaa !10
  call void @NearLossless(i32 noundef %88, i32 noundef %89, ptr noundef %90, i32 noundef %91, i32 noundef %92, ptr noundef %93, ptr noundef %94)
  br label %95

95:                                               ; preds = %87
  %96 = load i32, ptr %8, align 4, !tbaa !8
  %97 = add nsw i32 %96, -1
  store i32 %97, ptr %8, align 4, !tbaa !8
  br label %84, !llvm.loop !21

98:                                               ; preds = %84
  %99 = load ptr, ptr %12, align 8, !tbaa !10
  call void @WebPSafeFree(ptr noundef %99)
  store i32 1, ptr %4, align 4
  store i32 1, ptr %14, align 4
  br label %100

100:                                              ; preds = %98, %70, %32
  call void @llvm.lifetime.end.p0(i64 4, ptr %13) #5
  call void @llvm.lifetime.end.p0(i64 8, ptr %12) #5
  call void @llvm.lifetime.end.p0(i64 4, ptr %11) #5
  call void @llvm.lifetime.end.p0(i64 4, ptr %10) #5
  call void @llvm.lifetime.end.p0(i64 4, ptr %9) #5
  call void @llvm.lifetime.end.p0(i64 4, ptr %8) #5
  %101 = load i32, ptr %4, align 4
  ret i32 %101
}