; Function Attrs: nounwind uwtable
define hidden range(i32 0, 2) i32 @VP8ApplyNearLossless(ptr noundef readonly captures(none) %0, i32 noundef %1, ptr noundef captures(none) %2) local_unnamed_addr #0 {
  %4 = getelementptr inbounds nuw i8, ptr %0, i64 8
  %5 = load i32, ptr %4, align 8, !tbaa !3
  %6 = getelementptr inbounds nuw i8, ptr %0, i64 12
  %7 = load i32, ptr %6, align 4, !tbaa !12
  %8 = getelementptr inbounds nuw i8, ptr %0, i64 80
  %9 = load i32, ptr %8, align 8, !tbaa !13
  %10 = mul nsw i32 %5, 3
  %11 = sext i32 %10 to i64
  %12 = tail call ptr @WebPSafeMalloc(i64 noundef %11, i64 noundef 4) #4
  %.neg.i = sdiv i32 %1, -20
  %13 = add nsw i32 %.neg.i, 5
  %14 = icmp eq ptr %12, null
  br i1 %14, label %34, label %15

15:                                               ; preds = %3
  %16 = icmp slt i32 %5, 64
  %17 = icmp slt i32 %7, 64
  %or.cond = select i1 %16, i1 %17, i1 false
  %18 = icmp slt i32 %7, 3
  %or.cond3 = select i1 %or.cond, i1 true, i1 %18
  br i1 %or.cond3, label %.preheader, label %31

.preheader:                                       ; preds = %15
  %19 = icmp sgt i32 %7, 0
  br i1 %19, label %.lr.ph48, label %.sink.split

.lr.ph48:                                         ; preds = %.preheader
  %20 = getelementptr inbounds nuw i8, ptr %0, i64 72
  %21 = sext i32 %5 to i64
  %22 = shl nsw i64 %21, 2
  %wide.trip.count = zext nneg i32 %7 to i64
  br label %23

23:                                               ; preds = %.lr.ph48, %23
  %indvars.iv = phi i64 [ 0, %.lr.ph48 ], [ %indvars.iv.next, %23 ]
  %24 = mul nsw i64 %indvars.iv, %21
  %25 = getelementptr inbounds i32, ptr %2, i64 %24
  %26 = load ptr, ptr %20, align 8, !tbaa !14
  %27 = load i32, ptr %8, align 8, !tbaa !13
  %28 = sext i32 %27 to i64
  %29 = mul nsw i64 %indvars.iv, %28
  %30 = getelementptr inbounds i32, ptr %26, i64 %29
  tail call void @llvm.memcpy.p0.p0.i64(ptr align 4 %25, ptr align 4 %30, i64 %22, i1 false)
  %indvars.iv.next = add nuw nsw i64 %indvars.iv, 1
  %exitcond.not = icmp eq i64 %indvars.iv.next, %wide.trip.count
  br i1 %exitcond.not, label %.sink.split, label %23, !llvm.loop !15

31:                                               ; preds = %15
  %32 = getelementptr inbounds nuw i8, ptr %0, i64 72
  %33 = load ptr, ptr %32, align 8, !tbaa !14
  tail call fastcc void @NearLossless(i32 noundef %5, i32 noundef %7, ptr noundef %33, i32 noundef %9, i32 noundef %13, ptr noundef %12, ptr noundef %2)
  %.144 = add nsw i32 %.neg.i, 4
  %.not45 = icmp eq i32 %.144, 0
  br i1 %.not45, label %.sink.split, label %.lr.ph

.lr.ph:                                           ; preds = %31, %.lr.ph
  %.146 = phi i32 [ %.1, %.lr.ph ], [ %.144, %31 ]
  tail call fastcc void @NearLossless(i32 noundef %5, i32 noundef %7, ptr noundef %2, i32 noundef %5, i32 noundef %.146, ptr noundef %12, ptr noundef %2)
  %.1 = add nsw i32 %.146, -1
  %.not = icmp eq i32 %.1, 0
  br i1 %.not, label %.sink.split, label %.lr.ph, !llvm.loop !17

.sink.split:                                      ; preds = %.lr.ph, %23, %31, %.preheader
  tail call void @WebPSafeFree(ptr noundef nonnull %12) #4
  br label %34

34:                                               ; preds = %.sink.split, %3
  %.0 = phi i32 [ 0, %3 ], [ 1, %.sink.split ]
  ret i32 %.0
}